target datalayout = "e-m:e-p270:32:32-p271:32:32-p272:64:64-i64:64-i128:128-f80:128-n8:16:32:64-S128"
target triple = "x86_64-pc-linux-gnu"

%"class.vcg::Color4" = type { %"class.vcg::Point4" }
%"class.vcg::Point4" = type { [4 x i8] }
%"class.vcg::Rubberband" = type <{ ptr, %"class.vcg::Color4", i32, %class.QPoint, %"class.vcg::Point3", %"class.vcg::Point3", i8, [7 x i8] }>
%class.QPoint = type { i32, i32 }
%"class.vcg::Point3" = type { [3 x float] }

; Function Attrs: mustprogress nounwind uwtable
define linkonce_odr noundef ptr @_ZNK3vcg6Point3IfE1VEv(ptr noundef nonnull align 4 dereferenceable(12) %0) #4 comdat align 2 {
  %2 = alloca ptr, align 8
  store ptr %0, ptr %2, align 8
  %3 = load ptr, ptr %2, align 8
  %4 = getelementptr inbounds %"class.vcg::Point3", ptr %3, i32 0, i32 0
  %5 = getelementptr inbounds [3 x float], ptr %4, i64 0, i64 0
  ret ptr %5
}

; Function Attrs: mustprogress nounwind uwtable
define linkonce_odr noundef ptr @_ZNK3vcg6Point4IhE1VEv(ptr noundef nonnull align 1 dereferenceable(4) %0) #4 comdat align 2 {
  %2 = alloca ptr, align 8
  store ptr %0, ptr %2, align 8
  %3 = load ptr, ptr %2, align 8
  %4 = getelementptr inbounds %"class.vcg::Point4", ptr %3, i32 0, i32 0
  %5 = getelementptr inbounds [4 x i8], ptr %4, i64 0, i64 0
  ret ptr %5
}

; Function Attrs: mustprogress uwtable
define linkonce_odr void @_ZN3vcg8glVertexERKNS_6Point3IfEE(ptr noundef nonnull align 4 dereferenceable(12) %0) #5 comdat {
  %2 = alloca ptr, align 8
  store ptr %0, ptr %2, align 8
  %3 = load ptr, ptr %2, align 8
  %4 = call noundef ptr @_ZNK3vcg6Point3IfE1VEv(ptr noundef nonnull align 4 dereferenceable(12) %3)
  call void @glVertex3fv(ptr noundef %4)
  ret void
}

; Function Attrs: mustprogress uwtable
define linkonce_odr void @_ZN3vcg7glColorERKNS_6Color4IhEE(ptr noundef nonnull align 1 dereferenceable(4) %0) #5 comdat {
  %2 = alloca ptr, align 8
  store ptr %0, ptr %2, align 8
  %3 = load ptr, ptr %2, align 8
  %4 = call noundef ptr @_ZNK3vcg6Point4IhE1VEv(ptr noundef nonnull align 1 dereferenceable(4) %3)
  call void @glColor4ubv(ptr noundef %4)
  ret void
}

; Function Attrs: mustprogress uwtable
define void @_ZN3vcg10Rubberband10RenderLineEP9QGLWidgetNS_6Point3IfEES4_(ptr noundef nonnull align 8 dereferenceable(49) %0, ptr noundef %1, <2 x float> %2, float %3, <2 x float> %4, float %5) #8 align 2 {
  %7 = alloca %"class.vcg::Point3", align 4
  %8 = alloca { <2 x float>, float }, align 4
  %9 = alloca %"class.vcg::Point3", align 4
  %10 = alloca { <2 x float>, float }, align 4
  %11 = alloca ptr, align 8
  %12 = alloca ptr, align 8
  %13 = getelementptr inbounds { <2 x float>, float }, ptr %8, i32 0, i32 0
  store <2 x float> %2, ptr %13, align 4
  %14 = getelementptr inbounds { <2 x float>, float }, ptr %8, i32 0, i32 1
  store float %3, ptr %14, align 4
  call void @llvm.memcpy.p0.p0.i64(ptr align 4 %7, ptr align 4 %8, i64 12, i1 false)
  %15 = getelementptr inbounds { <2 x float>, float }, ptr %10, i32 0, i32 0
  store <2 x float> %4, ptr %15, align 4
  %16 = getelementptr inbounds { <2 x float>, float }, ptr %10, i32 0, i32 1
  store float %5, ptr %16, align 4
  call void @llvm.memcpy.p0.p0.i64(ptr align 4 %9, ptr align 4 %10, i64 12, i1 false)
  store ptr %0, ptr %11, align 8
  store ptr %1, ptr %12, align 8
  %17 = load ptr, ptr %11, align 8
  call void @glPushAttrib(i32 noundef 24903)
  call void @glDisable(i32 noundef 2896)
  call void @glDisable(i32 noundef 3553)
  call void @glDepthMask(i8 noundef zeroext 0)
  call void @glEnable(i32 noundef 2848)
  call void @glEnable(i32 noundef 2832)
  %18 = getelementptr inbounds %"class.vcg::Rubberband", ptr %17, i32 0, i32 1
  call void @_ZN3vcg7glColorERKNS_6Color4IhEE(ptr noundef nonnull align 1 dereferenceable(4) %18)
  call void @glDepthFunc(i32 noundef 513)
  call void @glLineWidth(float noundef 2.500000e+00)
  call void @glPointSize(float noundef 6.000000e+00)
  call void @glBegin(i32 noundef 1)
  call void @_ZN3vcg8glVertexERKNS_6Point3IfEE(ptr noundef nonnull align 4 dereferenceable(12) %7)
  call void @_ZN3vcg8glVertexERKNS_6Point3IfEE(ptr noundef nonnull align 4 dereferenceable(12) %9)
  call void @glEnd()
  call void @glBegin(i32 noundef 0)
  call void @_ZN3vcg8glVertexERKNS_6Point3IfEE(ptr noundef nonnull align 4 dereferenceable(12) %7)
  call void @_ZN3vcg8glVertexERKNS_6Point3IfEE(ptr noundef nonnull align 4 dereferenceable(12) %9)
  call void @glEnd()
  call void @glDepthFunc(i32 noundef 516)
  call void @glEnable(i32 noundef 3042)
  call void @glBlendFunc(i32 noundef 775, i32 noundef 769)
  call void @glLineWidth(float noundef 1.500000e+00)
  call void @glPointSize(float noundef 4.000000e+00)
  call void @glBegin(i32 noundef 1)
  call void @_ZN3vcg8glVertexERKNS_6Point3IfEE(ptr noundef nonnull align 4 dereferenceable(12) %7)
  call void @_ZN3vcg8glVertexERKNS_6Point3IfEE(ptr noundef nonnull align 4 dereferenceable(12) %9)
  call void @glEnd()
  call void @glBegin(i32 noundef 0)
  call void @_ZN3vcg8glVertexERKNS_6Point3IfEE(ptr noundef nonnull align 4 dereferenceable(12) %7)
  call void @_ZN3vcg8glVertexERKNS_6Point3IfEE(ptr noundef nonnull align 4 dereferenceable(12) %9)
  call void @glEnd()
  call void @glDepthFunc(i32 noundef 513)
  call void @glPopAttrib()
  ret void
}