; Function Attrs: mustprogress uwtable
define void @_ZN3vcg10Rubberband10RenderLineEP9QGLWidgetNS_6Point3IfEES4_(ptr noundef nonnull align 8 dereferenceable(49) %0, ptr nocapture noundef readnone %1, <2 x float> %2, float %3, <2 x float> %4, float %5) local_unnamed_addr #7 align 2 {
  %7 = alloca %"class.vcg::Point3", align 8
  %8 = alloca %"class.vcg::Point3", align 8
  store <2 x float> %2, ptr %7, align 8
  %.sroa.22.0..sroa_idx = getelementptr inbounds i8, ptr %7, i64 8
  store float %3, ptr %.sroa.22.0..sroa_idx, align 8
  store <2 x float> %4, ptr %8, align 8
  %.sroa.2.0..sroa_idx = getelementptr inbounds i8, ptr %8, i64 8
  store float %5, ptr %.sroa.2.0..sroa_idx, align 8
  tail call void @glPushAttrib(i32 noundef 24903)
  tail call void @glDisable(i32 noundef 2896)
  tail call void @glDisable(i32 noundef 3553)
  tail call void @glDepthMask(i8 noundef zeroext 0)
  tail call void @glEnable(i32 noundef 2848)
  tail call void @glEnable(i32 noundef 2832)
  %9 = getelementptr inbounds i8, ptr %0, i64 8
  tail call void @glColor4ubv(ptr noundef nonnull %9)
  tail call void @glDepthFunc(i32 noundef 513)
  tail call void @glLineWidth(float noundef 2.500000e+00)
  tail call void @glPointSize(float noundef 6.000000e+00)
  tail call void @glBegin(i32 noundef 1)
  call void @glVertex3fv(ptr noundef nonnull %7)
  call void @glVertex3fv(ptr noundef nonnull %8)
  call void @glEnd()
  call void @glBegin(i32 noundef 0)
  call void @glVertex3fv(ptr noundef nonnull %7)
  call void @glVertex3fv(ptr noundef nonnull %8)
  call void @glEnd()
  call void @glDepthFunc(i32 noundef 516)
  call void @glEnable(i32 noundef 3042)
  call void @glBlendFunc(i32 noundef 775, i32 noundef 769)
  call void @glLineWidth(float noundef 1.500000e+00)
  call void @glPointSize(float noundef 4.000000e+00)
  call void @glBegin(i32 noundef 1)
  call void @glVertex3fv(ptr noundef nonnull %7)
  call void @glVertex3fv(ptr noundef nonnull %8)
  call void @glEnd()
  call void @glBegin(i32 noundef 0)
  call void @glVertex3fv(ptr noundef nonnull %7)
  call void @glVertex3fv(ptr noundef nonnull %8)
  call void @glEnd()
  call void @glDepthFunc(i32 noundef 513)
  call void @glPopAttrib()
  ret void
}